target datalayout = "e-m:e-p270:32:32-p271:32:32-p272:64:64-i64:64-i128:128-f80:128-n8:16:32:64-S128"
target triple = "x86_64-pc-linux-gnu"

%struct.CPpmd8 = type { ptr, ptr, ptr, i32, i32, i32, i32, i32, i32, i32, i32, ptr, ptr, ptr, ptr, ptr, i32, i32, i32, i32, i32, %union.anon, [38 x i8], [128 x i8], [38 x i32], [38 x i32], [256 x i8], [260 x i8], %struct.CPpmd_See, [24 x [32 x %struct.CPpmd_See]], [25 x [64 x i16]] }
%union.anon = type { ptr }
%struct.CPpmd_See = type { i16, i8, i8 }
%struct.CPpmd_State = type { i8, i8, i16, i16 }

; Function Attrs: nounwind uwtable
define internal void @NextContext(ptr noundef %0) #0 {
  %2 = alloca ptr, align 8
  %3 = alloca ptr, align 8
  store ptr %0, ptr %2, align 8, !tbaa !4
  call void @llvm.lifetime.start.p0(i64 8, ptr %3) #6
  %4 = load ptr, ptr %2, align 8, !tbaa !4
  %5 = getelementptr inbounds nuw %struct.CPpmd8, ptr %4, i32 0, i32 11
  %6 = load ptr, ptr %5, align 8, !tbaa !8
  %7 = load ptr, ptr %2, align 8, !tbaa !4
  %8 = getelementptr inbounds nuw %struct.CPpmd8, ptr %7, i32 0, i32 2
  %9 = load ptr, ptr %8, align 8, !tbaa !45
  %10 = getelementptr inbounds nuw %struct.CPpmd_State, ptr %9, i32 0, i32 2
  %11 = load i16, ptr %10, align 2, !tbaa !72
  %12 = zext i16 %11 to i32
  %13 = load ptr, ptr %2, align 8, !tbaa !4
  %14 = getelementptr inbounds nuw %struct.CPpmd8, ptr %13, i32 0, i32 2
  %15 = load ptr, ptr %14, align 8, !tbaa !45
  %16 = getelementptr inbounds nuw %struct.CPpmd_State, ptr %15, i32 0, i32 3
  %17 = load i16, ptr %16, align 2, !tbaa !73
  %18 = zext i16 %17 to i32
  %19 = shl i32 %18, 16
  %20 = or i32 %12, %19
  %21 = zext i32 %20 to i64
  %22 = getelementptr inbounds nuw i8, ptr %6, i64 %21
  store ptr %22, ptr %3, align 8, !tbaa !74
  %23 = load ptr, ptr %2, align 8, !tbaa !4
  %24 = getelementptr inbounds nuw %struct.CPpmd8, ptr %23, i32 0, i32 3
  %25 = load i32, ptr %24, align 8, !tbaa !34
  %26 = icmp eq i32 %25, 0
  br i1 %26, label %27, label %39

27:                                               ; preds = %1
  %28 = load ptr, ptr %3, align 8, !tbaa !74
  %29 = load ptr, ptr %2, align 8, !tbaa !4
  %30 = getelementptr inbounds nuw %struct.CPpmd8, ptr %29, i32 0, i32 15
  %31 = load ptr, ptr %30, align 8, !tbaa !31
  %32 = icmp uge ptr %28, %31
  br i1 %32, label %33, label %39

33:                                               ; preds = %27
  %34 = load ptr, ptr %3, align 8, !tbaa !74
  %35 = load ptr, ptr %2, align 8, !tbaa !4
  %36 = getelementptr inbounds nuw %struct.CPpmd8, ptr %35, i32 0, i32 1
  store ptr %34, ptr %36, align 8, !tbaa !38
  %37 = load ptr, ptr %2, align 8, !tbaa !4
  %38 = getelementptr inbounds nuw %struct.CPpmd8, ptr %37, i32 0, i32 0
  store ptr %34, ptr %38, align 8, !tbaa !39
  br label %46

39:                                               ; preds = %27, %1
  %40 = load ptr, ptr %2, align 8, !tbaa !4
  call void @UpdateModel(ptr noundef %40)
  %41 = load ptr, ptr %2, align 8, !tbaa !4
  %42 = getelementptr inbounds nuw %struct.CPpmd8, ptr %41, i32 0, i32 1
  %43 = load ptr, ptr %42, align 8, !tbaa !38
  %44 = load ptr, ptr %2, align 8, !tbaa !4
  %45 = getelementptr inbounds nuw %struct.CPpmd8, ptr %44, i32 0, i32 0
  store ptr %43, ptr %45, align 8, !tbaa !39
  br label %46

46:                                               ; preds = %39, %33
  call void @llvm.lifetime.end.p0(i64 8, ptr %3) #6
  ret void
}

; Function Attrs: nounwind uwtable
define dso_local void @Ppmd8_UpdateBin(ptr noundef %0) #0 {
  %2 = alloca ptr, align 8
  store ptr %0, ptr %2, align 8, !tbaa !4
  %3 = load ptr, ptr %2, align 8, !tbaa !4
  %4 = getelementptr inbounds nuw %struct.CPpmd8, ptr %3, i32 0, i32 2
  %5 = load ptr, ptr %4, align 8, !tbaa !45
  %6 = getelementptr inbounds nuw %struct.CPpmd_State, ptr %5, i32 0, i32 1
  %7 = load i8, ptr %6, align 1, !tbaa !49
  %8 = zext i8 %7 to i32
  %9 = load ptr, ptr %2, align 8, !tbaa !4
  %10 = getelementptr inbounds nuw %struct.CPpmd8, ptr %9, i32 0, i32 2
  %11 = load ptr, ptr %10, align 8, !tbaa !45
  %12 = getelementptr inbounds nuw %struct.CPpmd_State, ptr %11, i32 0, i32 1
  %13 = load i8, ptr %12, align 1, !tbaa !49
  %14 = zext i8 %13 to i32
  %15 = icmp slt i32 %14, 196
  %16 = zext i1 %15 to i32
  %17 = add nsw i32 %8, %16
  %18 = trunc i32 %17 to i8
  %19 = load ptr, ptr %2, align 8, !tbaa !4
  %20 = getelementptr inbounds nuw %struct.CPpmd8, ptr %19, i32 0, i32 2
  %21 = load ptr, ptr %20, align 8, !tbaa !45
  %22 = getelementptr inbounds nuw %struct.CPpmd_State, ptr %21, i32 0, i32 1
  store i8 %18, ptr %22, align 1, !tbaa !49
  %23 = load ptr, ptr %2, align 8, !tbaa !4
  %24 = getelementptr inbounds nuw %struct.CPpmd8, ptr %23, i32 0, i32 5
  store i32 1, ptr %24, align 8, !tbaa !37
  %25 = load ptr, ptr %2, align 8, !tbaa !4
  %26 = getelementptr inbounds nuw %struct.CPpmd8, ptr %25, i32 0, i32 7
  %27 = load i32, ptr %26, align 8, !tbaa !36
  %28 = add nsw i32 %27, 1
  store i32 %28, ptr %26, align 8, !tbaa !36
  %29 = load ptr, ptr %2, align 8, !tbaa !4
  call void @NextContext(ptr noundef %29)
  ret void
}