; Function Attrs: nofree nosync nounwind memory(readwrite, inaccessiblemem: none) uwtable
define dso_local void @Ppmd8_UpdateBin(ptr noundef initializes((32, 36)) %0) local_unnamed_addr #8 {
  %2 = getelementptr inbounds nuw i8, ptr %0, i64 16
  %3 = load ptr, ptr %2, align 8, !tbaa !42
  %4 = getelementptr inbounds nuw i8, ptr %3, i64 1
  %5 = load i8, ptr %4, align 1, !tbaa !47
  %6 = icmp ult i8 %5, -60
  %7 = zext i1 %6 to i8
  %8 = add i8 %5, %7
  store i8 %8, ptr %4, align 1, !tbaa !47
  %9 = getelementptr inbounds nuw i8, ptr %0, i64 32
  store i32 1, ptr %9, align 8, !tbaa !33
  %10 = getelementptr inbounds nuw i8, ptr %0, i64 40
  %11 = load i32, ptr %10, align 8, !tbaa !32
  %12 = add nsw i32 %11, 1
  store i32 %12, ptr %10, align 8, !tbaa !32
  %13 = getelementptr inbounds nuw i8, ptr %0, i64 56
  %14 = load ptr, ptr %13, align 8, !tbaa !4
  %15 = getelementptr inbounds nuw i8, ptr %3, i64 2
  %16 = load i32, ptr %15, align 2
  %17 = zext i32 %16 to i64
  %18 = getelementptr inbounds nuw i8, ptr %14, i64 %17
  %19 = getelementptr inbounds nuw i8, ptr %0, i64 24
  %20 = load i32, ptr %19, align 8, !tbaa !30
  %21 = icmp eq i32 %20, 0
  br i1 %21, label %22, label %27

22:                                               ; preds = %1
  %23 = getelementptr inbounds nuw i8, ptr %0, i64 88
  %24 = load ptr, ptr %23, align 8, !tbaa !28
  %.not.i = icmp ult ptr %18, %24
  br i1 %.not.i, label %27, label %25

25:                                               ; preds = %22
  %26 = getelementptr inbounds nuw i8, ptr %0, i64 8
  store ptr %18, ptr %26, align 8, !tbaa !35
  br label %NextContext.exit

27:                                               ; preds = %22, %1
  tail call fastcc void @UpdateModel(ptr noundef nonnull %0)
  %28 = getelementptr inbounds nuw i8, ptr %0, i64 8
  %29 = load ptr, ptr %28, align 8, !tbaa !35
  br label %NextContext.exit

NextContext.exit:                                 ; preds = %25, %27
  %storemerge.i = phi ptr [ %29, %27 ], [ %18, %25 ]
  store ptr %storemerge.i, ptr %0, align 8, !tbaa !36
  ret void
}